target datalayout = "e-m:e-p270:32:32-p271:32:32-p272:64:64-i64:64-i128:128-f80:128-n8:16:32:64-S128"
target triple = "x86_64-pc-linux-gnu"

%struct.mp_buf = type { ptr, i64, i64 }

@.str.3 = private unnamed_addr constant [30 x i8] c"MessagePack pack needs input.\00", align 1
@.str.4 = private unnamed_addr constant [41 x i8] c"Too many arguments for MessagePack pack.\00", align 1
@.str.5 = private unnamed_addr constant [21 x i8] c"in function mp_check\00", align 1

; Function Attrs: nounwind uwtable
define dso_local ptr @mp_realloc(ptr noundef %0, ptr noundef %1, i64 noundef %2, i64 noundef %3) #0 {
  %5 = alloca ptr, align 8
  %6 = alloca ptr, align 8
  %7 = alloca i64, align 8
  %8 = alloca i64, align 8
  %9 = alloca ptr, align 8
  %10 = alloca ptr, align 8
  store ptr %0, ptr %5, align 8, !tbaa !17
  store ptr %1, ptr %6, align 8, !tbaa !4
  store i64 %2, ptr %7, align 8, !tbaa !8
  store i64 %3, ptr %8, align 8, !tbaa !8
  call void @llvm.lifetime.start.p0(i64 8, ptr %9) #6
  store ptr null, ptr %9, align 8, !tbaa !4
  call void @llvm.lifetime.start.p0(i64 8, ptr %10) #6
  %11 = load ptr, ptr %5, align 8, !tbaa !17
  %12 = call ptr @lua_getallocf(ptr noundef %11, ptr noundef %10)
  store ptr %12, ptr %9, align 8, !tbaa !4
  %13 = load ptr, ptr %9, align 8, !tbaa !4
  %14 = load ptr, ptr %10, align 8, !tbaa !4
  %15 = load ptr, ptr %6, align 8, !tbaa !4
  %16 = load i64, ptr %7, align 8, !tbaa !8
  %17 = load i64, ptr %8, align 8, !tbaa !8
  %18 = call ptr %13(ptr noundef %14, ptr noundef %15, i64 noundef %16, i64 noundef %17)
  call void @llvm.lifetime.end.p0(i64 8, ptr %10) #6
  call void @llvm.lifetime.end.p0(i64 8, ptr %9) #6
  ret ptr %18
}

; Function Attrs: nounwind uwtable
define dso_local void @mp_buf_free(ptr noundef %0, ptr noundef %1) #0 {
  %3 = alloca ptr, align 8
  %4 = alloca ptr, align 8
  store ptr %0, ptr %3, align 8, !tbaa !17
  store ptr %1, ptr %4, align 8, !tbaa !19
  %5 = load ptr, ptr %3, align 8, !tbaa !17
  %6 = load ptr, ptr %4, align 8, !tbaa !19
  %7 = getelementptr inbounds nuw %struct.mp_buf, ptr %6, i32 0, i32 0
  %8 = load ptr, ptr %7, align 8, !tbaa !21
  %9 = load ptr, ptr %4, align 8, !tbaa !19
  %10 = getelementptr inbounds nuw %struct.mp_buf, ptr %9, i32 0, i32 1
  %11 = load i64, ptr %10, align 8, !tbaa !24
  %12 = load ptr, ptr %4, align 8, !tbaa !19
  %13 = getelementptr inbounds nuw %struct.mp_buf, ptr %12, i32 0, i32 2
  %14 = load i64, ptr %13, align 8, !tbaa !23
  %15 = add i64 %11, %14
  %16 = call ptr @mp_realloc(ptr noundef %5, ptr noundef %8, i64 noundef %15, i64 noundef 0)
  %17 = load ptr, ptr %3, align 8, !tbaa !17
  %18 = load ptr, ptr %4, align 8, !tbaa !19
  %19 = call ptr @mp_realloc(ptr noundef %17, ptr noundef %18, i64 noundef 24, i64 noundef 0)
  ret void
}

; Function Attrs: nounwind uwtable
define dso_local ptr @mp_buf_new(ptr noundef %0) #0 {
  %2 = alloca ptr, align 8
  %3 = alloca ptr, align 8
  store ptr %0, ptr %2, align 8, !tbaa !17
  call void @llvm.lifetime.start.p0(i64 8, ptr %3) #6
  store ptr null, ptr %3, align 8, !tbaa !19
  %4 = load ptr, ptr %2, align 8, !tbaa !17
  %5 = call ptr @mp_realloc(ptr noundef %4, ptr noundef null, i64 noundef 0, i64 noundef 24)
  store ptr %5, ptr %3, align 8, !tbaa !19
  %6 = load ptr, ptr %3, align 8, !tbaa !19
  %7 = getelementptr inbounds nuw %struct.mp_buf, ptr %6, i32 0, i32 0
  store ptr null, ptr %7, align 8, !tbaa !21
  %8 = load ptr, ptr %3, align 8, !tbaa !19
  %9 = getelementptr inbounds nuw %struct.mp_buf, ptr %8, i32 0, i32 2
  store i64 0, ptr %9, align 8, !tbaa !23
  %10 = load ptr, ptr %3, align 8, !tbaa !19
  %11 = getelementptr inbounds nuw %struct.mp_buf, ptr %10, i32 0, i32 1
  store i64 0, ptr %11, align 8, !tbaa !24
  %12 = load ptr, ptr %3, align 8, !tbaa !19
  call void @llvm.lifetime.end.p0(i64 8, ptr %3) #6
  ret ptr %12
}

; Function Attrs: nounwind uwtable
define dso_local i32 @mp_pack(ptr noundef %0) #0 {
  %2 = alloca i32, align 4
  %3 = alloca ptr, align 8
  %4 = alloca i32, align 4
  %5 = alloca i32, align 4
  %6 = alloca ptr, align 8
  %7 = alloca i32, align 4
  store ptr %0, ptr %3, align 8, !tbaa !17
  call void @llvm.lifetime.start.p0(i64 4, ptr %4) #6
  %8 = load ptr, ptr %3, align 8, !tbaa !17
  %9 = call i32 @lua_gettop(ptr noundef %8)
  store i32 %9, ptr %4, align 4, !tbaa !12
  call void @llvm.lifetime.start.p0(i64 4, ptr %5) #6
  call void @llvm.lifetime.start.p0(i64 8, ptr %6) #6
  %10 = load i32, ptr %4, align 4, !tbaa !12
  %11 = icmp eq i32 %10, 0
  br i1 %11, label %12, label %15

12:                                               ; preds = %1
  %13 = load ptr, ptr %3, align 8, !tbaa !17
  %14 = call i32 @luaL_argerror(ptr noundef %13, i32 noundef 0, ptr noundef @.str.3)
  store i32 %14, ptr %2, align 4
  store i32 1, ptr %7, align 4
  br label %60

15:                                               ; preds = %1
  %16 = load ptr, ptr %3, align 8, !tbaa !17
  %17 = load i32, ptr %4, align 4, !tbaa !12
  %18 = call i32 @lua_checkstack(ptr noundef %16, i32 noundef %17)
  %19 = icmp ne i32 %18, 0
  br i1 %19, label %23, label %20

20:                                               ; preds = %15
  %21 = load ptr, ptr %3, align 8, !tbaa !17
  %22 = call i32 @luaL_argerror(ptr noundef %21, i32 noundef 0, ptr noundef @.str.4)
  store i32 %22, ptr %2, align 4
  store i32 1, ptr %7, align 4
  br label %60

23:                                               ; preds = %15
  %24 = load ptr, ptr %3, align 8, !tbaa !17
  %25 = call ptr @mp_buf_new(ptr noundef %24)
  store ptr %25, ptr %6, align 8, !tbaa !19
  store i32 1, ptr %5, align 4, !tbaa !12
  br label %26

26:                                               ; preds = %52, %23
  %27 = load i32, ptr %5, align 4, !tbaa !12
  %28 = load i32, ptr %4, align 4, !tbaa !12
  %29 = icmp sle i32 %27, %28
  br i1 %29, label %30, label %55

30:                                               ; preds = %26
  %31 = load ptr, ptr %3, align 8, !tbaa !17
  call void @luaL_checkstack(ptr noundef %31, i32 noundef 1, ptr noundef @.str.5)
  %32 = load ptr, ptr %3, align 8, !tbaa !17
  %33 = load i32, ptr %5, align 4, !tbaa !12
  call void @lua_pushvalue(ptr noundef %32, i32 noundef %33)
  %34 = load ptr, ptr %3, align 8, !tbaa !17
  %35 = load ptr, ptr %6, align 8, !tbaa !19
  call void @mp_encode_lua_type(ptr noundef %34, ptr noundef %35, i32 noundef 0)
  %36 = load ptr, ptr %3, align 8, !tbaa !17
  %37 = load ptr, ptr %6, align 8, !tbaa !19
  %38 = getelementptr inbounds nuw %struct.mp_buf, ptr %37, i32 0, i32 0
  %39 = load ptr, ptr %38, align 8, !tbaa !21
  %40 = load ptr, ptr %6, align 8, !tbaa !19
  %41 = getelementptr inbounds nuw %struct.mp_buf, ptr %40, i32 0, i32 1
  %42 = load i64, ptr %41, align 8, !tbaa !24
  call void @lua_pushlstring(ptr noundef %36, ptr noundef %39, i64 noundef %42)
  %43 = load ptr, ptr %6, align 8, !tbaa !19
  %44 = getelementptr inbounds nuw %struct.mp_buf, ptr %43, i32 0, i32 1
  %45 = load i64, ptr %44, align 8, !tbaa !24
  %46 = load ptr, ptr %6, align 8, !tbaa !19
  %47 = getelementptr inbounds nuw %struct.mp_buf, ptr %46, i32 0, i32 2
  %48 = load i64, ptr %47, align 8, !tbaa !23
  %49 = add i64 %48, %45
  store i64 %49, ptr %47, align 8, !tbaa !23
  %50 = load ptr, ptr %6, align 8, !tbaa !19
  %51 = getelementptr inbounds nuw %struct.mp_buf, ptr %50, i32 0, i32 1
  store i64 0, ptr %51, align 8, !tbaa !24
  br label %52

52:                                               ; preds = %30
  %53 = load i32, ptr %5, align 4, !tbaa !12
  %54 = add nsw i32 %53, 1
  store i32 %54, ptr %5, align 4, !tbaa !12
  br label %26, !llvm.loop !39

55:                                               ; preds = %26
  %56 = load ptr, ptr %3, align 8, !tbaa !17
  %57 = load ptr, ptr %6, align 8, !tbaa !19
  call void @mp_buf_free(ptr noundef %56, ptr noundef %57)
  %58 = load ptr, ptr %3, align 8, !tbaa !17
  %59 = load i32, ptr %4, align 4, !tbaa !12
  call void @lua_concat(ptr noundef %58, i32 noundef %59)
  store i32 1, ptr %2, align 4
  store i32 1, ptr %7, align 4
  br label %60

60:                                               ; preds = %55, %20, %12
  call void @llvm.lifetime.end.p0(i64 8, ptr %6) #6
  call void @llvm.lifetime.end.p0(i64 4, ptr %5) #6
  call void @llvm.lifetime.end.p0(i64 4, ptr %4) #6
  %61 = load i32, ptr %2, align 4
  ret i32 %61
}