; Function Attrs: nounwind uwtable
define dso_local i32 @mp_pack(ptr noundef %0) #2 {
  %2 = alloca ptr, align 8
  %3 = alloca ptr, align 8
  %4 = alloca ptr, align 8
  %5 = tail call i32 @lua_gettop(ptr noundef %0) #10
  %6 = icmp eq i32 %5, 0
  br i1 %6, label %7, label %9

7:                                                ; preds = %1
  %8 = tail call i32 @luaL_argerror(ptr noundef %0, i32 noundef 0, ptr noundef nonnull @.str.3) #10
  br label %34

9:                                                ; preds = %1
  %10 = tail call i32 @lua_checkstack(ptr noundef %0, i32 noundef %5) #10
  %.not = icmp eq i32 %10, 0
  br i1 %.not, label %11, label %13

11:                                               ; preds = %9
  %12 = tail call i32 @luaL_argerror(ptr noundef %0, i32 noundef 0, ptr noundef nonnull @.str.4) #10
  br label %34

13:                                               ; preds = %9
  call void @llvm.lifetime.start.p0(i64 8, ptr nonnull %4) #10
  %14 = call ptr @lua_getallocf(ptr noundef %0, ptr noundef nonnull %4) #10
  %15 = load ptr, ptr %4, align 8, !tbaa !9
  %16 = call noundef ptr %14(ptr noundef %15, ptr noundef null, i64 noundef 0, i64 noundef 24) #10
  call void @llvm.lifetime.end.p0(i64 8, ptr nonnull %4) #10
  call void @llvm.memset.p0.i64(ptr noundef nonnull align 8 dereferenceable(24) %16, i8 0, i64 24, i1 false)
  %.not2728 = icmp slt i32 %5, 1
  br i1 %.not2728, label %._crit_edge, label %.lr.ph

.lr.ph:                                           ; preds = %13
  %17 = getelementptr inbounds nuw i8, ptr %16, i64 8
  %18 = getelementptr inbounds nuw i8, ptr %16, i64 16
  br label %19

19:                                               ; preds = %.lr.ph, %19
  %.02529 = phi i32 [ 1, %.lr.ph ], [ %25, %19 ]
  call void @luaL_checkstack(ptr noundef %0, i32 noundef 1, ptr noundef nonnull @.str.5) #10
  call void @lua_pushvalue(ptr noundef %0, i32 noundef %.02529) #10
  call void @mp_encode_lua_type(ptr noundef %0, ptr noundef nonnull %16, i32 noundef 0)
  %20 = load ptr, ptr %16, align 8, !tbaa !15
  %21 = load i64, ptr %17, align 8, !tbaa !16
  call void @lua_pushlstring(ptr noundef %0, ptr noundef %20, i64 noundef %21) #10
  %22 = load i64, ptr %17, align 8, !tbaa !16
  %23 = load i64, ptr %18, align 8, !tbaa !11
  %24 = add i64 %23, %22
  store i64 %24, ptr %18, align 8, !tbaa !11
  store i64 0, ptr %17, align 8, !tbaa !16
  %25 = add nuw i32 %.02529, 1
  %exitcond.not = icmp eq i32 %.02529, %5
  br i1 %exitcond.not, label %._crit_edge.loopexit, label %19, !llvm.loop !27

._crit_edge.loopexit:                             ; preds = %19
  %.pre = load ptr, ptr %16, align 8, !tbaa !15
  br label %._crit_edge

._crit_edge:                                      ; preds = %._crit_edge.loopexit, %13
  %26 = phi i64 [ %24, %._crit_edge.loopexit ], [ 0, %13 ]
  %27 = phi ptr [ %.pre, %._crit_edge.loopexit ], [ null, %13 ]
  call void @llvm.lifetime.start.p0(i64 8, ptr nonnull %3) #10
  %28 = call ptr @lua_getallocf(ptr noundef %0, ptr noundef nonnull %3) #10
  %29 = load ptr, ptr %3, align 8, !tbaa !9
  %30 = call ptr %28(ptr noundef %29, ptr noundef %27, i64 noundef %26, i64 noundef 0) #10
  call void @llvm.lifetime.end.p0(i64 8, ptr nonnull %3) #10
  call void @llvm.lifetime.start.p0(i64 8, ptr nonnull %2) #10
  %31 = call ptr @lua_getallocf(ptr noundef %0, ptr noundef nonnull %2) #10
  %32 = load ptr, ptr %2, align 8, !tbaa !9
  %33 = call ptr %31(ptr noundef %32, ptr noundef nonnull %16, i64 noundef 24, i64 noundef 0) #10
  call void @llvm.lifetime.end.p0(i64 8, ptr nonnull %2) #10
  call void @lua_concat(ptr noundef %0, i32 noundef %5) #10
  br label %34

34:                                               ; preds = %._crit_edge, %11, %7
  %.0 = phi i32 [ %8, %7 ], [ 1, %._crit_edge ], [ %12, %11 ]
  ret i32 %.0
}